Certificate:
    Data:
        Version: 3 (0x2)
        Serial Number: 1 (0x1)
    Signature Algorithm: sha256WithRSAEncryption
        Issuer: C=DE, ST=SA, L=VPN-City, O=PlayHide, OU=clients, CN=server/name=server.key/emailAddress=support@playhide.tk
        Validity
            Not Before: Jan 20 00:30:16 2019 GMT
            Not After : Jan 17 00:30:16 2029 GMT
        Subject: C=DE, ST=SA, L=VPN-City, O=PlayHide, OU=clients, CN=server/name=server.de/emailAddress=support@playhide.tk
        Subject Public Key Info:
            Public Key Algorithm: rsaEncryption
                Public-Key: (4096 bit)
                Modulus:
                    00:c6:ad:c8:d2:0a:3c:fc:4b:f9:4b:d5:8b:bd:5d:
                    d7:b7:34:1d:81:7b:6a:eb:df:8d:4b:98:f0:05:28:
                    94:fb:00:0e:f4:70:eb:2a:b0:ae:8c:85:b1:8c:2c:
                    83:f4:41:97:ec:4d:2b:bf:01:3f:cb:ad:93:65:8c:
                    25:99:07:b8:db:88:e2:ca:12:b7:01:bf:99:e2:89:
                    6c:60:8e:e4:b4:78:f2:1c:06:ce:d6:b8:82:fd:28:
                    65:c4:b8:bf:0f:8c:e2:2d:db:e3:73:7d:31:ee:e3:
                    a3:90:34:2b:bd:47:d6:65:bd:ab:2d:25:b5:e3:26:
                    c5:45:cd:9a:f9:2b:19:18:42:11:95:31:a2:56:ab:
                    e7:d2:d8:bf:f9:d8:d9:cb:c8:00:8a:a2:e6:fb:dd:
                    e7:1d:55:26:b8:11:dc:b4:f3:3e:16:95:3a:d5:d0:
                    36:33:64:a7:45:62:a4:fd:ab:ec:fe:00:01:57:37:
                    09:ae:84:5d:7b:1a:fa:2c:a8:73:8a:d2:ad:3a:ec:
                    92:4f:ca:c1:f6:2d:eb:f0:c1:18:11:d3:e2:8e:75:
                    58:bb:c6:68:e8:70:42:c7:e6:30:b1:37:7a:4b:f5:
                    aa:f3:9e:60:11:08:03:03:8a:7f:f9:84:e8:1f:35:
                    75:36:99:4a:58:88:3f:d9:fc:87:7e:99:40:46:5f:
                    1d:4d:0e:7c:91:1a:bd:72:82:89:e7:70:ad:d8:1d:
                    2d:b4:16:37:13:68:4d:79:d5:cb:66:aa:50:24:79:
                    f2:48:41:a7:fa:d8:52:63:a1:ab:d8:f0:b0:b7:28:
                    12:2b:1b:df:fc:f6:06:fb:1b:ab:a1:f8:74:3e:de:
                    f8:8f:1c:f6:dd:3e:08:28:85:02:55:b6:11:4d:3d:
                    db:e7:f9:cf:3e:b4:42:e8:e2:ba:83:ef:bf:21:a5:
                    e6:93:f1:9c:44:ac:6f:89:bb:96:55:20:71:82:7e:
                    16:e4:93:b1:39:24:f7:00:c1:9f:47:79:ef:9a:c9:
                    6d:ca:67:33:36:76:b3:cd:90:2f:b4:2d:b0:f0:18:
                    a8:d4:3f:f8:6f:16:23:f8:60:bf:42:41:52:69:92:
                    72:83:af:f6:88:06:5d:b0:65:1a:5d:61:34:ef:06:
                    1c:e6:ed:28:95:0f:3b:93:11:0a:0b:1b:64:b0:78:
                    52:4b:60:9c:ff:48:7c:c9:32:30:38:2e:a5:7d:8d:
                    08:e6:c1:7c:bb:16:52:bc:cd:88:0b:27:ae:52:e0:
                    16:cd:af:c2:fc:60:fa:49:cc:88:f1:13:a7:b7:dc:
                    95:11:07:f4:03:bd:b4:a7:fc:43:e9:75:49:96:12:
                    bd:8e:82:bf:40:b6:43:f0:36:27:dc:f5:92:02:a0:
                    2d:15:b5
                Exponent: 65537 (0x10001)
        X509v3 extensions:
            X509v3 Basic Constraints: 
                CA:FALSE
            Netscape Cert Type: 
                SSL Server
            Netscape Comment: 
                Easy-RSA Generated Server Certificate
            X509v3 Subject Key Identifier: 
                1A:BE:9D:AC:87:63:18:1D:1F:CD:2A:45:E1:3D:DF:E3:9C:90:F8:F7
            X509v3 Authority Key Identifier: 
                keyid:D0:61:E7:83:F0:01:EC:99:4A:32:EA:F7:87:93:47:12:F0:02:4D:BA
                DirName:/C=DE/ST=SA/L=VPN-City/O=PlayHide/OU=clients/CN=server/name=server.key/emailAddress=support@playhide.tk
                serial:8A:42:8D:1A:84:F7:49:CC

            X509v3 Extended Key Usage: 
                TLS Web Server Authentication
            X509v3 Key Usage: 
                Digital Signature, Key Encipherment
    Signature Algorithm: sha256WithRSAEncryption
         0f:ae:1d:56:aa:21:db:6f:3e:13:9e:c0:89:c6:a8:a8:2b:01:
         4c:b0:af:ae:c5:4a:08:d1:a5:5f:62:15:c0:df:4d:ef:6a:68:
         c7:54:f1:cf:ac:aa:10:15:53:72:97:df:7a:47:13:54:17:11:
         4c:fd:c0:c0:71:ed:32:5b:19:64:09:d6:36:c2:bd:df:76:f2:
         ed:89:12:9c:93:b4:18:76:10:6a:16:c6:79:90:a9:5d:74:1f:
         4e:8a:a6:f0:fe:e3:57:ca:c0:c2:e7:23:6a:2e:78:a8:6e:b2:
         92:aa:d1:62:ac:80:12:ca:f6:cf:fb:18:08:17:b9:a8:12:66:
         4c:8d:20:c3:f0:9d:38:3d:2f:c9:74:c2:5e:79:46:db:4b:8e:
         18:c7:7f:6b:1e:52:9f:d1:a1:25:fe:2f:4a:85:57:44:85:43:
         6b:d2:8d:79:40:50:00:25:cd:79:d6:13:9c:fc:31:cc:e6:d8:
         7a:08:e7:d8:55:29:0c:1f:d2:54:da:63:d4:04:3d:36:56:d8:
         a8:7b:73:8e:84:ea:72:93:03:25:51:c2:df:38:07:18:db:66:
         ee:d8:76:8c:5e:20:6c:81:55:46:0e:63:c9:2a:1a:aa:f3:4a:
         a7:b0:65:4b:00:71:a5:50:1a:0d:ec:b5:61:2e:89:48:50:48:
         61:9b:81:3e:9b:24:78:9e:46:a5:4e:db:32:09:a1:59:b2:76:
         5f:00:26:5a:be:c0:30:2f:95:f4:6a:90:65:67:e3:18:14:70:
         e8:28:b7:95:0f:80:63:f9:ed:1c:76:05:94:67:9e:70:3c:56:
         a6:d8:61:9e:ef:e2:cd:95:9a:76:9d:4f:b0:04:53:71:4c:0b:
         42:a2:39:bc:21:38:01:db:04:ca:43:4f:35:e8:c9:b0:15:ff:
         1c:39:8c:08:de:69:8e:54:32:dc:ce:1f:7f:ee:4a:03:ae:3f:
         53:0a:0f:ac:b6:49:b1:aa:38:84:f8:08:a1:c6:cf:10:29:71:
         7f:53:1d:4e:78:79:a8:21:2c:0d:b4:72:92:d7:da:45:84:18:
         6f:46:96:be:5f:d1:13:96:03:4e:d5:2f:c1:1f:84:56:3f:52:
         d7:94:bb:fb:d2:ac:79:7f:84:8f:77:a4:1a:99:2d:f3:18:2a:
         48:cc:21:d2:13:12:ca:f0:9b:b4:db:34:30:f1:45:90:21:e0:
         cd:4b:81:c4:a3:6f:1f:93:83:42:5f:bb:d7:8c:ad:d5:ea:dd:
         70:77:04:d0:b6:75:df:a4:9e:fd:b3:9b:8d:2f:32:59:60:80:
         5a:2b:fa:4e:04:be:e2:7b:c9:7f:4a:b1:3f:39:46:c6:df:23:
         06:37:f0:27:1a:ed:a1:4b
-----BEGIN CERTIFICATE-----
MIIHIzCCBQugAwIBAgIBATANBgkqhkiG9w0BAQsFADCBnDELMAkGA1UEBhMCREUx
CzAJBgNVBAgTAlNBMREwDwYDVQQHEwhWUE4tQ2l0eTERMA8GA1UEChMIUGxheUhp
ZGUxEDAOBgNVBAsTB2NsaWVudHMxDzANBgNVBAMTBnNlcnZlcjETMBEGA1UEKRMK
c2VydmVyLmtleTEiMCAGCSqGSIb3DQEJARYTc3VwcG9ydEBwbGF5aGlkZS50azAe
Fw0xOTAxMjAwMDMwMTZaFw0yOTAxMTcwMDMwMTZaMIGbMQswCQYDVQQGEwJERTEL
MAkGA1UECBMCU0ExETAPBgNVBAcTCFZQTi1DaXR5MREwDwYDVQQKEwhQbGF5SGlk
ZTEQMA4GA1UECxMHY2xpZW50czEPMA0GA1UEAxMGc2VydmVyMRIwEAYDVQQpEwlz
ZXJ2ZXIuZGUxIjAgBgkqhkiG9w0BCQEWE3N1cHBvcnRAcGxheWhpZGUudGswggIi
MA0GCSqGSIb3DQEBAQUAA4ICDwAwggIKAoICAQDGrcjSCjz8S/lL1Yu9Xde3NB2B
e2rr341LmPAFKJT7AA70cOsqsK6MhbGMLIP0QZfsTSu/AT/LrZNljCWZB7jbiOLK
ErcBv5niiWxgjuS0ePIcBs7WuIL9KGXEuL8PjOIt2+NzfTHu46OQNCu9R9Zlvast
JbXjJsVFzZr5KxkYQhGVMaJWq+fS2L/52NnLyACKoub73ecdVSa4Edy08z4WlTrV
0DYzZKdFYqT9q+z+AAFXNwmuhF17GvosqHOK0q067JJPysH2LevwwRgR0+KOdVi7
xmjocELH5jCxN3pL9arznmARCAMDin/5hOgfNXU2mUpYiD/Z/Id+mUBGXx1NDnyR
Gr1ygonncK3YHS20FjcTaE151ctmqlAkefJIQaf62FJjoavY8LC3KBIrG9/89gb7
G6uh+HQ+3viPHPbdPggohQJVthFNPdvn+c8+tELo4rqD778hpeaT8ZxErG+Ju5ZV
IHGCfhbkk7E5JPcAwZ9Hee+ayW3KZzM2drPNkC+0LbDwGKjUP/hvFiP4YL9CQVJp
knKDr/aIBl2wZRpdYTTvBhzm7SiVDzuTEQoLG2SweFJLYJz/SHzJMjA4LqV9jQjm
wXy7FlK8zYgLJ65S4BbNr8L8YPpJzIjxE6e33JURB/QDvbSn/EPpdUmWEr2Ogr9A
tkPwNifc9ZICoC0VtQIDAQABo4IBbTCCAWkwCQYDVR0TBAIwADARBglghkgBhvhC
AQEEBAMCBkAwNAYJYIZIAYb4QgENBCcWJUVhc3ktUlNBIEdlbmVyYXRlZCBTZXJ2
ZXIgQ2VydGlmaWNhdGUwHQYDVR0OBBYEFBq+nayHYxgdH80qReE93+OckPj3MIHR
BgNVHSMEgckwgcaAFNBh54PwAeyZSjLq94eTRxLwAk26oYGipIGfMIGcMQswCQYD
VQQGEwJERTELMAkGA1UECBMCU0ExETAPBgNVBAcTCFZQTi1DaXR5MREwDwYDVQQK
EwhQbGF5SGlkZTEQMA4GA1UECxMHY2xpZW50czEPMA0GA1UEAxMGc2VydmVyMRMw
EQYDVQQpEwpzZXJ2ZXIua2V5MSIwIAYJKoZIhvcNAQkBFhNzdXBwb3J0QHBsYXlo
aWRlLnRrggkAikKNGoT3ScwwEwYDVR0lBAwwCgYIKwYBBQUHAwEwCwYDVR0PBAQD
AgWgMA0GCSqGSIb3DQEBCwUAA4ICAQAPrh1WqiHbbz4TnsCJxqioKwFMsK+uxUoI
0aVfYhXA303vamjHVPHPrKoQFVNyl996RxNUFxFM/cDAce0yWxlkCdY2wr3fdvLt
iRKck7QYdhBqFsZ5kKlddB9Oiqbw/uNXysDC5yNqLniobrKSqtFirIASyvbP+xgI
F7moEmZMjSDD8J04PS/JdMJeeUbbS44Yx39rHlKf0aEl/i9KhVdEhUNr0o15QFAA
Jc151hOc/DHM5th6COfYVSkMH9JU2mPUBD02Vtioe3OOhOpykwMlUcLfOAcY22bu
2HaMXiBsgVVGDmPJKhqq80qnsGVLAHGlUBoN7LVhLolIUEhhm4E+myR4nkalTtsy
CaFZsnZfACZavsAwL5X0apBlZ+MYFHDoKLeVD4Bj+e0cdgWUZ55wPFam2GGe7+LN
lZp2nU+wBFNxTAtCojm8ITgB2wTKQ0816MmwFf8cOYwI3mmOVDLczh9/7koDrj9T
Cg+stkmxqjiE+Aihxs8QKXF/Ux1OeHmoISwNtHKS19pFhBhvRpa+X9ETlgNO1S/B
H4RWP1LXlLv70qx5f4SPd6QamS3zGCpIzCHSExLK8Ju02zQw8UWQIeDNS4HEo28f
k4NCX7vXjK3V6t1wdwTQtnXfpJ79s5uNLzJZYIBaK/pOBL7ie8l/SrE/OUbG3yMG
N/AnGu2hSw==
-----END CERTIFICATE-----
